target datalayout = "e-m:e-p270:32:32-p271:32:32-p272:64:64-i64:64-i128:128-f80:128-n8:16:32:64-S128"
target triple = "x86_64-pc-linux-gnu"

%struct.Vec_Int_t_ = type { i32, i32, ptr }

@.str.5 = private unnamed_addr constant [2 x i8] c"\0A\00", align 1
@s_Counter = internal global i32 0, align 4
@.str.21 = private unnamed_addr constant [3 x i8] c"wb\00", align 1
@.str.22 = private unnamed_addr constant [26 x i8] c"Cannot open output file.\0A\00", align 1
@.str.24 = private unnamed_addr constant [9 x i8] c"%02d.sol\00", align 1
@.str.25 = private unnamed_addr constant [17 x i8] c"sol name aig %d\0A\00", align 1
@.str.26 = private unnamed_addr constant [4 x i8] c"%d \00", align 1
@.str.27 = private unnamed_addr constant [33 x i8] c"Dumped solution info file \22%s\22.\0A\00", align 1

; Function Attrs: inlinehint nounwind uwtable
define internal i32 @Abc_Var2Lit(i32 noundef %0, i32 noundef %1) #2 {
  %3 = alloca i32, align 4
  %4 = alloca i32, align 4
  store i32 %0, ptr %3, align 4, !tbaa !8
  store i32 %1, ptr %4, align 4, !tbaa !8
  %5 = load i32, ptr %3, align 4, !tbaa !8
  %6 = load i32, ptr %3, align 4, !tbaa !8
  %7 = add nsw i32 %5, %6
  %8 = load i32, ptr %4, align 4, !tbaa !8
  %9 = add nsw i32 %7, %8
  ret i32 %9
}

; Function Attrs: inlinehint nounwind uwtable
define internal i32 @Abc_LitIsCompl(i32 noundef %0) #2 {
  %2 = alloca i32, align 4
  store i32 %0, ptr %2, align 4, !tbaa !8
  %3 = load i32, ptr %2, align 4, !tbaa !8
  %4 = and i32 %3, 1
  ret i32 %4
}

; Function Attrs: inlinehint nounwind uwtable
define internal i32 @Abc_Lit2Var(i32 noundef %0) #2 {
  %2 = alloca i32, align 4
  store i32 %0, ptr %2, align 4, !tbaa !8
  %3 = load i32, ptr %2, align 4, !tbaa !8
  %4 = ashr i32 %3, 1
  ret i32 %4
}

; Function Attrs: inlinehint nounwind uwtable
define internal i32 @Vec_IntEntry(ptr noundef %0, i32 noundef %1) #2 {
  %3 = alloca ptr, align 8
  %4 = alloca i32, align 4
  store ptr %0, ptr %3, align 8, !tbaa !41
  store i32 %1, ptr %4, align 4, !tbaa !8
  %5 = load ptr, ptr %3, align 8, !tbaa !41
  %6 = getelementptr inbounds nuw %struct.Vec_Int_t_, ptr %5, i32 0, i32 2
  %7 = load ptr, ptr %6, align 8, !tbaa !59
  %8 = load i32, ptr %4, align 4, !tbaa !8
  %9 = sext i32 %8 to i64
  %10 = getelementptr inbounds i32, ptr %7, i64 %9
  %11 = load i32, ptr %10, align 4, !tbaa !8
  ret i32 %11
}

; Function Attrs: inlinehint nounwind uwtable
define internal i32 @Vec_IntSize(ptr noundef %0) #2 {
  %2 = alloca ptr, align 8
  store ptr %0, ptr %2, align 8, !tbaa !41
  %3 = load ptr, ptr %2, align 8, !tbaa !41
  %4 = getelementptr inbounds nuw %struct.Vec_Int_t_, ptr %3, i32 0, i32 1
  %5 = load i32, ptr %4, align 4, !tbaa !57
  ret i32 %5
}

; Function Attrs: nounwind uwtable
define void @Supp_DeriveDumpSol(ptr noundef %0, ptr noundef %1, i32 noundef %2) #0 {
  %4 = alloca ptr, align 8
  %5 = alloca ptr, align 8
  %6 = alloca i32, align 4
  %7 = alloca [100 x i8], align 16
  %8 = alloca i32, align 4
  %9 = alloca i32, align 4
  %10 = alloca i32, align 4
  %11 = alloca i32, align 4
  %12 = alloca i32, align 4
  %13 = alloca ptr, align 8
  %14 = alloca i32, align 4
  store ptr %0, ptr %4, align 8, !tbaa !41
  store ptr %1, ptr %5, align 8, !tbaa !41
  store i32 %2, ptr %6, align 4, !tbaa !8
  call void @llvm.lifetime.start.p0(i64 100, ptr %7) #15
  call void @llvm.lifetime.start.p0(i64 4, ptr %8) #15
  %15 = getelementptr inbounds [100 x i8], ptr %7, i64 0, i64 0
  %16 = load i32, ptr @s_Counter, align 4, !tbaa !8
  %17 = call i32 (ptr, ptr, ...) @sprintf(ptr noundef %15, ptr noundef @.str.24, i32 noundef %16) #15
  store i32 %17, ptr %8, align 4, !tbaa !8
  call void @llvm.lifetime.start.p0(i64 4, ptr %9) #15
  call void @llvm.lifetime.start.p0(i64 4, ptr %10) #15
  call void @llvm.lifetime.start.p0(i64 4, ptr %11) #15
  store i32 -1, ptr %11, align 4, !tbaa !8
  call void @llvm.lifetime.start.p0(i64 4, ptr %12) #15
  %18 = load ptr, ptr %4, align 8, !tbaa !41
  %19 = call i32 @Vec_IntSize(ptr noundef %18)
  store i32 %19, ptr %12, align 4, !tbaa !8
  call void @llvm.lifetime.start.p0(i64 8, ptr %13) #15
  %20 = getelementptr inbounds [100 x i8], ptr %7, i64 0, i64 0
  %21 = call noalias ptr @fopen(ptr noundef %20, ptr noundef @.str.21)
  store ptr %21, ptr %13, align 8, !tbaa !166
  %22 = load ptr, ptr %13, align 8, !tbaa !166
  %23 = icmp eq ptr %22, null
  br i1 %23, label %24, label %26

24:                                               ; preds = %3
  %25 = call i32 (ptr, ...) @printf(ptr noundef @.str.22)
  br label %26

26:                                               ; preds = %24, %3
  %27 = load ptr, ptr %13, align 8, !tbaa !166
  %28 = load ptr, ptr %5, align 8, !tbaa !41
  %29 = call i32 @Vec_IntSize(ptr noundef %28)
  %30 = sdiv i32 %29, 2
  %31 = call i32 (ptr, ptr, ...) @fprintf(ptr noundef %27, ptr noundef @.str.25, i32 noundef %30) #15
  store i32 0, ptr %9, align 4, !tbaa !8
  br label %32

32:                                               ; preds = %79, %26
  %33 = load i32, ptr %9, align 4, !tbaa !8
  %34 = load ptr, ptr %5, align 8, !tbaa !41
  %35 = call i32 @Vec_IntSize(ptr noundef %34)
  %36 = icmp slt i32 %33, %35
  br i1 %36, label %37, label %41

37:                                               ; preds = %32
  %38 = load ptr, ptr %5, align 8, !tbaa !41
  %39 = load i32, ptr %9, align 4, !tbaa !8
  %40 = call i32 @Vec_IntEntry(ptr noundef %38, i32 noundef %39)
  store i32 %40, ptr %10, align 4, !tbaa !8
  br label %41

41:                                               ; preds = %37, %32
  %42 = phi i1 [ false, %32 ], [ true, %37 ]
  br i1 %42, label %43, label %82

43:                                               ; preds = %41
  %44 = load i32, ptr %10, align 4, !tbaa !8
  %45 = icmp slt i32 %44, 2
  br i1 %45, label %46, label %48

46:                                               ; preds = %43
  %47 = load i32, ptr %10, align 4, !tbaa !8
  store i32 %47, ptr %11, align 4, !tbaa !8
  br label %75

48:                                               ; preds = %43
  %49 = load i32, ptr %10, align 4, !tbaa !8
  %50 = sub nsw i32 %49, 4
  %51 = load i32, ptr %12, align 4, !tbaa !8
  %52 = mul nsw i32 2, %51
  %53 = icmp slt i32 %50, %52
  br i1 %53, label %54, label %65

54:                                               ; preds = %48
  call void @llvm.lifetime.start.p0(i64 4, ptr %14) #15
  %55 = load ptr, ptr %4, align 8, !tbaa !41
  %56 = load i32, ptr %10, align 4, !tbaa !8
  %57 = sub nsw i32 %56, 4
  %58 = call i32 @Abc_Lit2Var(i32 noundef %57)
  %59 = call i32 @Vec_IntEntry(ptr noundef %55, i32 noundef %58)
  store i32 %59, ptr %14, align 4, !tbaa !8
  %60 = load i32, ptr %14, align 4, !tbaa !8
  %61 = add nsw i32 1, %60
  %62 = load i32, ptr %10, align 4, !tbaa !8
  %63 = call i32 @Abc_LitIsCompl(i32 noundef %62)
  %64 = call i32 @Abc_Var2Lit(i32 noundef %61, i32 noundef %63)
  store i32 %64, ptr %11, align 4, !tbaa !8
  call void @llvm.lifetime.end.p0(i64 4, ptr %14) #15
  br label %74

65:                                               ; preds = %48
  %66 = load i32, ptr %10, align 4, !tbaa !8
  %67 = load i32, ptr %6, align 4, !tbaa !8
  %68 = add nsw i32 %67, 1
  %69 = load i32, ptr %12, align 4, !tbaa !8
  %70 = add nsw i32 %69, 2
  %71 = sub nsw i32 %68, %70
  %72 = mul nsw i32 2, %71
  %73 = add nsw i32 %66, %72
  store i32 %73, ptr %11, align 4, !tbaa !8
  br label %74

74:                                               ; preds = %65, %54
  br label %75

75:                                               ; preds = %74, %46
  %76 = load ptr, ptr %13, align 8, !tbaa !166
  %77 = load i32, ptr %11, align 4, !tbaa !8
  %78 = call i32 (ptr, ptr, ...) @fprintf(ptr noundef %76, ptr noundef @.str.26, i32 noundef %77) #15
  br label %79

79:                                               ; preds = %75
  %80 = load i32, ptr %9, align 4, !tbaa !8
  %81 = add nsw i32 %80, 1
  store i32 %81, ptr %9, align 4, !tbaa !8
  br label %32, !llvm.loop !172

82:                                               ; preds = %41
  %83 = load ptr, ptr %5, align 8, !tbaa !41
  %84 = call i32 @Vec_IntSize(ptr noundef %83)
  %85 = and i32 %84, 1
  %86 = icmp ne i32 %85, 0
  br i1 %86, label %87, label %91

87:                                               ; preds = %82
  %88 = load ptr, ptr %13, align 8, !tbaa !166
  %89 = load i32, ptr %11, align 4, !tbaa !8
  %90 = call i32 (ptr, ptr, ...) @fprintf(ptr noundef %88, ptr noundef @.str.26, i32 noundef %89) #15
  br label %91

91:                                               ; preds = %87, %82
  %92 = load ptr, ptr %13, align 8, !tbaa !166
  %93 = call i32 (ptr, ptr, ...) @fprintf(ptr noundef %92, ptr noundef @.str.5) #15
  %94 = load ptr, ptr %13, align 8, !tbaa !166
  %95 = call i32 @fclose(ptr noundef %94)
  store i32 0, ptr %8, align 4, !tbaa !8
  %96 = getelementptr inbounds [100 x i8], ptr %7, i64 0, i64 0
  %97 = call i32 (ptr, ...) @printf(ptr noundef @.str.27, ptr noundef %96)
  call void @llvm.lifetime.end.p0(i64 8, ptr %13) #15
  call void @llvm.lifetime.end.p0(i64 4, ptr %12) #15
  call void @llvm.lifetime.end.p0(i64 4, ptr %11) #15
  call void @llvm.lifetime.end.p0(i64 4, ptr %10) #15
  call void @llvm.lifetime.end.p0(i64 4, ptr %9) #15
  call void @llvm.lifetime.end.p0(i64 4, ptr %8) #15
  call void @llvm.lifetime.end.p0(i64 100, ptr %7) #15
  ret void
}