; Function Attrs: nofree nounwind uwtable
define void @Supp_DeriveDumpSol(ptr noundef readonly captures(none) %0, ptr noundef readonly captures(none) %1, i32 noundef %2) local_unnamed_addr #12 {
  %4 = alloca [100 x i8], align 16
  call void @llvm.lifetime.start.p0(i64 100, ptr nonnull %4) #32
  %5 = load i32, ptr @s_Counter, align 4, !tbaa !35
  %6 = call i32 (ptr, ptr, ...) @sprintf(ptr noundef nonnull dereferenceable(1) %4, ptr noundef nonnull dereferenceable(1) @.str.24, i32 noundef %5) #32
  %7 = getelementptr i8, ptr %0, i64 4
  %.val32 = load i32, ptr %7, align 4, !tbaa !30
  %8 = call noalias ptr @fopen(ptr noundef nonnull %4, ptr noundef nonnull @.str.21)
  %9 = icmp eq ptr %8, null
  br i1 %9, label %10, label %11

10:                                               ; preds = %3
  %puts = tail call i32 @puts(ptr nonnull dereferenceable(1) @str.5)
  br label %11

11:                                               ; preds = %10, %3
  %12 = getelementptr i8, ptr %1, i64 4
  %.val31 = load i32, ptr %12, align 4, !tbaa !30
  %13 = sdiv i32 %.val31, 2
  %14 = tail call i32 (ptr, ptr, ...) @fprintf(ptr noundef %8, ptr noundef nonnull @.str.25, i32 noundef %13) #32
  %.val3035 = load i32, ptr %12, align 4, !tbaa !30
  %15 = icmp sgt i32 %.val3035, 0
  br i1 %15, label %.lr.ph, label %.critedge

.lr.ph:                                           ; preds = %11
  %16 = getelementptr i8, ptr %1, i64 8
  %17 = shl nsw i32 %.val32, 1
  %18 = xor i32 %.val32, -1
  %19 = add i32 %2, %18
  %20 = shl nsw i32 %19, 1
  %21 = getelementptr i8, ptr %0, i64 8
  br label %22

22:                                               ; preds = %.lr.ph, %40
  %indvars.iv = phi i64 [ 0, %.lr.ph ], [ %indvars.iv.next, %40 ]
  %.val34 = load ptr, ptr %16, align 8, !tbaa !34
  %23 = getelementptr inbounds nuw i32, ptr %.val34, i64 %indvars.iv
  %24 = load i32, ptr %23, align 4, !tbaa !35
  %25 = icmp slt i32 %24, 2
  br i1 %25, label %40, label %26

26:                                               ; preds = %22
  %27 = add nsw i32 %24, -4
  %28 = icmp slt i32 %27, %17
  br i1 %28, label %29, label %38

29:                                               ; preds = %26
  %30 = ashr i32 %27, 1
  %.val33 = load ptr, ptr %21, align 8, !tbaa !34
  %31 = sext i32 %30 to i64
  %32 = getelementptr inbounds i32, ptr %.val33, i64 %31
  %33 = load i32, ptr %32, align 4, !tbaa !35
  %34 = and i32 %24, 1
  %35 = shl i32 %33, 1
  %36 = add i32 %35, 2
  %37 = or disjoint i32 %36, %34
  br label %40

38:                                               ; preds = %26
  %39 = add nsw i32 %24, %20
  br label %40

40:                                               ; preds = %22, %29, %38
  %.1 = phi i32 [ %37, %29 ], [ %39, %38 ], [ %24, %22 ]
  %41 = tail call i32 (ptr, ptr, ...) @fprintf(ptr noundef %8, ptr noundef nonnull @.str.26, i32 noundef %.1) #32
  %indvars.iv.next = add nuw nsw i64 %indvars.iv, 1
  %.val30 = load i32, ptr %12, align 4, !tbaa !30
  %42 = sext i32 %.val30 to i64
  %43 = icmp slt i64 %indvars.iv.next, %42
  br i1 %43, label %22, label %.critedge, !llvm.loop !154

.critedge:                                        ; preds = %40, %11
  %.026.lcssa = phi i32 [ -1, %11 ], [ %.1, %40 ]
  %.val30.lcssa = phi i32 [ %.val3035, %11 ], [ %.val30, %40 ]
  %44 = and i32 %.val30.lcssa, 1
  %.not = icmp eq i32 %44, 0
  br i1 %.not, label %47, label %45

45:                                               ; preds = %.critedge
  %46 = tail call i32 (ptr, ptr, ...) @fprintf(ptr noundef %8, ptr noundef nonnull @.str.26, i32 noundef %.026.lcssa) #32
  br label %47

47:                                               ; preds = %45, %.critedge
  %fputc = tail call i32 @fputc(i32 10, ptr %8)
  %48 = tail call i32 @fclose(ptr noundef %8)
  %49 = call i32 (ptr, ...) @printf(ptr noundef nonnull dereferenceable(1) @.str.27, ptr noundef nonnull %4)
  call void @llvm.lifetime.end.p0(i64 100, ptr nonnull %4) #32
  ret void
}